---
triple:          'x86_64-apple-darwin'
binary-path:     '/Users/miyako/Documents/GitHub/olecf-parser/macOS/olecf-parser'
relocations:
  - { offset: 0xD38C, size: 0x8, addend: 0x0, symName: __ZNSt3__135__uninitialized_allocator_copy_implB8ne180100INS_9allocatorINS_12basic_stringIcNS_11char_traitsIcEENS1_IcEEEEEEPKS6_S9_PS6_EET2_RT_T0_T1_SB_, symObjAddr: 0x522D, symBinAddr: 0x100005BD9, symSize: 0xA5 }
  - { offset: 0xD60E, size: 0x8, addend: 0x0, symName: __ZNSt3__1eqB8ne180100IcNS_11char_traitsIcEENS_9allocatorIcEEEEbRKNS_12basic_stringIT_T0_T1_EEPKS6_, symObjAddr: 0x3E99, symBinAddr: 0x1000049D9, symSize: 0x63 }
  - { offset: 0xDCB9, size: 0x8, addend: 0x0, symName: __ZNSt3__119__allocate_at_leastB8ne180100INS_9allocatorINS_12basic_stringIcNS_11char_traitsIcEENS1_IcEEEEEEEENS_19__allocation_resultINS_16allocator_traitsIT_E7pointerEEERSA_m, symObjAddr: 0x4302, symBinAddr: 0x100004D86, symSize: 0x38 }
  - { offset: 0xDD40, size: 0x8, addend: 0x0, symName: __ZNSt3__128__exception_guard_exceptionsINS_29_AllocatorDestroyRangeReverseINS_9allocatorINS_12basic_stringIcNS_11char_traitsIcEENS2_IcEEEEEENS_16reverse_iteratorIPS7_EEEEED2B8ne180100Ev, symObjAddr: 0x433A, symBinAddr: 0x100004DBE, symSize: 0x1A }
  - { offset: 0xE1C2, size: 0x8, addend: 0x0, symName: __ZNSt3__142__uninitialized_allocator_move_if_noexceptB8ne180100INS_9allocatorI5SlideEENS_16reverse_iteratorIPS2_EES6_S6_EET2_RT_T0_T1_S7_, symObjAddr: 0x484C, symBinAddr: 0x100005298, symSize: 0x90 }
  - { offset: 0xE2F0, size: 0x8, addend: 0x0, symName: __ZNSt3__135__uninitialized_allocator_copy_implB8ne180100INS_9allocatorINS_12basic_stringIcNS_11char_traitsIcEENS1_IcEEEEEEPS6_S8_S8_EET2_RT_T0_T1_S9_, symObjAddr: 0x4623, symBinAddr: 0x1000050A7, symSize: 0xA5 }
  - { offset: 0xE6AA, size: 0x8, addend: 0x0, symName: __ZNSt3__142__uninitialized_allocator_move_if_noexceptB8ne180100INS_9allocatorI5SlideEENS_16reverse_iteratorIPS2_EES6_S6_EET2_RT_T0_T1_S7_, symObjAddr: 0x484C, symBinAddr: 0x100005298, symSize: 0x90 }
  - { offset: 0xEFCF, size: 0x8, addend: 0x0, symName: __ZNSt3__120__throw_out_of_rangeB8ne180100EPKc, symObjAddr: 0x5357, symBinAddr: 0x100005D03, symSize: 0x4B }
  - { offset: 0x130B7, size: 0x8, addend: 0x0, symName: __ZNSt3__16vectorINS_12basic_stringIcNS_11char_traitsIcEENS_9allocatorIcEEEENS4_IS6_EEE26__swap_out_circular_bufferERNS_14__split_bufferIS6_RS7_EE, symObjAddr: 0x4220, symBinAddr: 0x100004CA4, symSize: 0xD2 }
  - { offset: 0x1363B, size: 0x8, addend: 0x0, symName: __ZNSt3__16vectorI5SlideNS_9allocatorIS1_EEE26__swap_out_circular_bufferERNS_14__split_bufferIS1_RS3_EE, symObjAddr: 0x478A, symBinAddr: 0x10000520E, symSize: 0x7A }
  - { offset: 0x13C11, size: 0x8, addend: 0x0, symName: __Z22codepage_to_cfencodingi, symObjAddr: 0x0, symBinAddr: 0x100000B40, symSize: 0x220 }
  - { offset: 0x1451C, size: 0x8, addend: 0x0, symName: __Z8read_pptR8DocumentPKhmi, symObjAddr: 0x220, symBinAddr: 0x100000D60, symSize: 0x58B }
  - { offset: 0x15B3F, size: 0x8, addend: 0x0, symName: __ZNSt3__112basic_stringIcNS_11char_traitsIcEENS_9allocatorIcEEEC2B8ne180100EPKcm, symObjAddr: 0x3F44, symBinAddr: 0x100004A78, symSize: 0x8C }
  - { offset: 0x15F8C, size: 0x8, addend: 0x0, symName: __ZNSt3__16vectorIhNS_9allocatorIhEEEC2Em, symObjAddr: 0x49A4, symBinAddr: 0x1000053F0, symSize: 0x64 }
  - { offset: 0x1626D, size: 0x8, addend: 0x0, symName: __ZNSt3__112basic_stringIcNS_11char_traitsIcEENS_9allocatorIcEEE17__assign_externalEPKc, symObjAddr: 0x4D5C, symBinAddr: 0x100005708, symSize: 0x27 }
  - { offset: 0x16377, size: 0x8, addend: 0x0, symName: __ZNSt3__16vectorINS_12basic_stringIcNS_11char_traitsIcEENS_9allocatorIcEEEENS4_IS6_EEE21__push_back_slow_pathIRKS6_EEPS6_OT_, symObjAddr: 0x4080, symBinAddr: 0x100004B04, symSize: 0x11C }
  - { offset: 0x166D6, size: 0x8, addend: 0x0, symName: __ZNSt3__112basic_stringIcNS_11char_traitsIcEENS_9allocatorIcEEE25__init_copy_ctor_externalEPKcm, symObjAddr: 0x419C, symBinAddr: 0x100004C20, symSize: 0x84 }
  - { offset: 0x16AC5, size: 0x8, addend: 0x0, symName: __ZNSt3__16vectorI5SlideNS_9allocatorIS1_EEE22__construct_one_at_endB8ne180100IJRKS1_EEEvDpOT_, symObjAddr: 0x43F0, symBinAddr: 0x100004E74, symSize: 0x60 }
  - { offset: 0x16CF0, size: 0x8, addend: 0x0, symName: __ZNSt3__16vectorI5SlideNS_9allocatorIS1_EEE21__push_back_slow_pathIRKS1_EEPS1_OT_, symObjAddr: 0x4450, symBinAddr: 0x100004ED4, symSize: 0x11E }
  - { offset: 0x1707D, size: 0x8, addend: 0x0, symName: __ZNSt3__16vectorINS_12basic_stringIcNS_11char_traitsIcEENS_9allocatorIcEEEENS4_IS6_EEE16__destroy_vectorclB8ne180100Ev, symObjAddr: 0x4716, symBinAddr: 0x10000519A, symSize: 0x32 }
  - { offset: 0x186F0, size: 0x8, addend: 0x0, symName: _main, symObjAddr: 0x7AB, symBinAddr: 0x1000012EB, symSize: 0x3615 }
  - { offset: 0x22743, size: 0x8, addend: 0x0, symName: __ZNSt3__16vectorIhNS_9allocatorIhEEE8__appendEm, symObjAddr: 0x4A4E, symBinAddr: 0x10000549A, symSize: 0x12E }
  - { offset: 0x22D55, size: 0x8, addend: 0x0, symName: __ZNSt3__16vectorIcNS_9allocatorIcEEEC2Em, symObjAddr: 0x4B7C, symBinAddr: 0x1000055C8, symSize: 0x64 }
  - { offset: 0x22D9A, size: 0x8, addend: 0x0, symName: __ZNSt3__16vectorIcNS_9allocatorIcEEEC2Em, symObjAddr: 0x4B7C, symBinAddr: 0x1000055C8, symSize: 0x64 }
  - { offset: 0x2303C, size: 0x8, addend: 0x0, symName: __ZNSt3__112basic_stringIcNS_11char_traitsIcEENS_9allocatorIcEEEC2B8ne180100ILi0EEEPKc, symObjAddr: 0x4C26, symBinAddr: 0x100005672, symSize: 0x94 }
  - { offset: 0x23611, size: 0x8, addend: 0x0, symName: __ZNKSt3__117basic_string_viewIcNS_11char_traitsIcEEE11starts_withB8ne180100ES3_, symObjAddr: 0x52D2, symBinAddr: 0x100005C7E, symSize: 0x2A }
  - { offset: 0x23699, size: 0x8, addend: 0x0, symName: __ZL16utf16le_to_utf_8RNSt3__16vectorIhNS_9allocatorIhEEEERNS_12basic_stringIcNS_11char_traitsIcEENS1_IcEEEE, symObjAddr: 0x4D83, symBinAddr: 0x10000572F, symSize: 0xE4 }
  - { offset: 0x23B72, size: 0x8, addend: 0x0, symName: __ZL11process_rtfRNSt3__16vectorIhNS_9allocatorIhEEEES4_, symObjAddr: 0x4E67, symBinAddr: 0x100005813, symSize: 0x393 }
  - { offset: 0x243BE, size: 0x8, addend: 0x0, symName: __ZN7MessageD2Ev, symObjAddr: 0x58C6, symBinAddr: 0x100006272, symSize: 0xB1 }
  - { offset: 0x24F20, size: 0x8, addend: 0x0, symName: __ZL10print_textPK8_TidyDocPK9_TidyNodeRNSt3__112basic_stringIcNS5_11char_traitsIcEENS5_9allocatorIcEEEE, symObjAddr: 0x5977, symBinAddr: 0x100006323, symSize: 0xEF }
  - { offset: 0x253C7, size: 0x8, addend: 0x0, symName: __ZNSt3__16vectorI5SlideNS_9allocatorIS1_EEE16__destroy_vectorclB8ne180100Ev, symObjAddr: 0x5A66, symBinAddr: 0x100006412, symSize: 0x5F }
  - { offset: 0x255DB, size: 0x8, addend: 0x0, symName: __ZL5usagev, symObjAddr: 0x3DC0, symBinAddr: 0x100004900, symSize: 0xD9 }
  - { offset: 0x25674, size: 0x8, addend: 0x0, symName: __ZNSt3__1eqB8ne180100IcNS_11char_traitsIcEENS_9allocatorIcEEEEbRKNS_12basic_stringIT_T0_T1_EEPKS6_, symObjAddr: 0x3E99, symBinAddr: 0x1000049D9, symSize: 0x63 }
  - { offset: 0x25685, size: 0x8, addend: 0x0, symName: _main.cold.1, symObjAddr: 0x5DAC, symBinAddr: 0x1000766B0, symSize: 0x2B }
  - { offset: 0x2578C, size: 0x8, addend: 0x0, symName: __ZN7AccountD1Ev, symObjAddr: 0x51FA, symBinAddr: 0x100005BA6, symSize: 0x33 }
  - { offset: 0x259D6, size: 0x8, addend: 0x0, symName: __ZN8DocumentD1Ev, symObjAddr: 0x3EFC, symBinAddr: 0x100004A3C, symSize: 0x3A }
  - { offset: 0x2611C, size: 0x8, addend: 0x0, symName: __ZNSt3__114__split_bufferINS_12basic_stringIcNS_11char_traitsIcEENS_9allocatorIcEEEERNS4_IS6_EEED2Ev, symObjAddr: 0x438A, symBinAddr: 0x100004E0E, symSize: 0x28 }
  - { offset: 0x261E9, size: 0x8, addend: 0x0, symName: __ZNKSt3__16vectorINS_12basic_stringIcNS_11char_traitsIcEENS_9allocatorIcEEEENS4_IS6_EEE20__throw_length_errorB8ne180100Ev, symObjAddr: 0x42F2, symBinAddr: 0x100004D76, symSize: 0x10 }
  - { offset: 0x26212, size: 0x8, addend: 0x0, symName: __ZNSt3__119__allocate_at_leastB8ne180100INS_9allocatorINS_12basic_stringIcNS_11char_traitsIcEENS1_IcEEEEEEEENS_19__allocation_resultINS_16allocator_traitsIT_E7pointerEEERSA_m, symObjAddr: 0x4302, symBinAddr: 0x100004D86, symSize: 0x38 }
  - { offset: 0x26350, size: 0x8, addend: 0x0, symName: __ZNSt3__128__exception_guard_exceptionsINS_29_AllocatorDestroyRangeReverseINS_9allocatorINS_12basic_stringIcNS_11char_traitsIcEENS2_IcEEEEEENS_16reverse_iteratorIPS7_EEEEED2B8ne180100Ev, symObjAddr: 0x433A, symBinAddr: 0x100004DBE, symSize: 0x1A }
  - { offset: 0x26388, size: 0x8, addend: 0x0, symName: __ZNKSt3__129_AllocatorDestroyRangeReverseINS_9allocatorINS_12basic_stringIcNS_11char_traitsIcEENS1_IcEEEEEENS_16reverse_iteratorIPS6_EEEclB8ne180100Ev, symObjAddr: 0x4354, symBinAddr: 0x100004DD8, symSize: 0x36 }
  - { offset: 0x26649, size: 0x8, addend: 0x0, symName: __ZNSt3__114__split_bufferINS_12basic_stringIcNS_11char_traitsIcEENS_9allocatorIcEEEERNS4_IS6_EEE17__destruct_at_endB8ne180100EPS6_, symObjAddr: 0x43B2, symBinAddr: 0x100004E36, symSize: 0x3E }
  - { offset: 0x2699A, size: 0x8, addend: 0x0, symName: __ZNSt3__16vectorINS_12basic_stringIcNS_11char_traitsIcEENS_9allocatorIcEEEENS4_IS6_EEE16__init_with_sizeB8ne180100IPS6_SA_EEvT_T0_m, symObjAddr: 0x456E, symBinAddr: 0x100004FF2, symSize: 0x72 }
  - { offset: 0x26DEB, size: 0x8, addend: 0x0, symName: __ZNSt3__114__split_bufferI5SlideRNS_9allocatorIS1_EEED2Ev, symObjAddr: 0x493A, symBinAddr: 0x100005386, symSize: 0x24 }
  - { offset: 0x26E9B, size: 0x8, addend: 0x0, symName: __ZNKSt3__16vectorI5SlideNS_9allocatorIS1_EEE20__throw_length_errorB8ne180100Ev, symObjAddr: 0x4804, symBinAddr: 0x100005288, symSize: 0x10 }
  - { offset: 0x26FAA, size: 0x8, addend: 0x0, symName: __ZNSt3__16vectorINS_12basic_stringIcNS_11char_traitsIcEENS_9allocatorIcEEEENS4_IS6_EEE11__vallocateB8ne180100Em, symObjAddr: 0x45E0, symBinAddr: 0x100005064, symSize: 0x43 }
  - { offset: 0x27012, size: 0x8, addend: 0x0, symName: __ZNSt3__135__uninitialized_allocator_copy_implB8ne180100INS_9allocatorINS_12basic_stringIcNS_11char_traitsIcEENS1_IcEEEEEEPS6_S8_S8_EET2_RT_T0_T1_S9_, symObjAddr: 0x4623, symBinAddr: 0x1000050A7, symSize: 0xA5 }
  - { offset: 0x270E3, size: 0x8, addend: 0x0, symName: __ZNSt3__128__exception_guard_exceptionsINS_29_AllocatorDestroyRangeReverseINS_9allocatorINS_12basic_stringIcNS_11char_traitsIcEENS2_IcEEEEEEPS7_EEED2B8ne180100Ev, symObjAddr: 0x46C8, symBinAddr: 0x10000514C, symSize: 0x1A }
  - { offset: 0x2711B, size: 0x8, addend: 0x0, symName: __ZNKSt3__129_AllocatorDestroyRangeReverseINS_9allocatorINS_12basic_stringIcNS_11char_traitsIcEENS1_IcEEEEEEPS6_EclB8ne180100Ev, symObjAddr: 0x46E2, symBinAddr: 0x100005166, symSize: 0x34 }
  - { offset: 0x272C4, size: 0x8, addend: 0x0, symName: __ZNSt3__16vectorINS_12basic_stringIcNS_11char_traitsIcEENS_9allocatorIcEEEENS4_IS6_EEE22__base_destruct_at_endB8ne180100EPS6_, symObjAddr: 0x4748, symBinAddr: 0x1000051CC, symSize: 0x42 }
  - { offset: 0x2764A, size: 0x8, addend: 0x0, symName: __ZNSt3__128__exception_guard_exceptionsINS_29_AllocatorDestroyRangeReverseINS_9allocatorI5SlideEENS_16reverse_iteratorIPS3_EEEEED2B8ne180100Ev, symObjAddr: 0x48DC, symBinAddr: 0x100005328, symSize: 0x1A }
  - { offset: 0x27682, size: 0x8, addend: 0x0, symName: __ZNKSt3__129_AllocatorDestroyRangeReverseINS_9allocatorI5SlideEENS_16reverse_iteratorIPS2_EEEclB8ne180100Ev, symObjAddr: 0x48F6, symBinAddr: 0x100005342, symSize: 0x44 }
  - { offset: 0x278DC, size: 0x8, addend: 0x0, symName: __ZNSt3__114__split_bufferI5SlideRNS_9allocatorIS1_EEE5clearB8ne180100Ev, symObjAddr: 0x495E, symBinAddr: 0x1000053AA, symSize: 0x46 }
  - { offset: 0x27C10, size: 0x8, addend: 0x0, symName: __ZNSt3__16vectorIhNS_9allocatorIhEEE11__vallocateB8ne180100Em, symObjAddr: 0x4A08, symBinAddr: 0x100005454, symSize: 0x36 }
  - { offset: 0x27D16, size: 0x8, addend: 0x0, symName: __ZNKSt3__16vectorIhNS_9allocatorIhEEE20__throw_length_errorB8ne180100Ev, symObjAddr: 0x4A3E, symBinAddr: 0x10000548A, symSize: 0x10 }
  - { offset: 0x27D3F, size: 0x8, addend: 0x0, symName: __ZNSt3__16vectorIhNS_9allocatorIhEEE8__appendEm, symObjAddr: 0x4A4E, symBinAddr: 0x10000549A, symSize: 0x12E }
  - { offset: 0x28164, size: 0x8, addend: 0x0, symName: __ZNSt3__16vectorIcNS_9allocatorIcEEE11__vallocateB8ne180100Em, symObjAddr: 0x4BE0, symBinAddr: 0x10000562C, symSize: 0x36 }
  - { offset: 0x28249, size: 0x8, addend: 0x0, symName: __ZNKSt3__16vectorIcNS_9allocatorIcEEE20__throw_length_errorB8ne180100Ev, symObjAddr: 0x4C16, symBinAddr: 0x100005662, symSize: 0x10 }
  - { offset: 0x28272, size: 0x8, addend: 0x0, symName: __ZNSt3__112basic_stringIcNS_11char_traitsIcEENS_9allocatorIcEEEC2B8ne180100ILi0EEEPKc, symObjAddr: 0x4C26, symBinAddr: 0x100005672, symSize: 0x94 }
  - { offset: 0x284D0, size: 0x8, addend: 0x0, symName: __ZNSt3__16vectorIhNS_9allocatorIhEEE6insertENS_11__wrap_iterIPKhEEmRS5_, symObjAddr: 0x53C6, symBinAddr: 0x100005D72, symSize: 0x216 }
  - { offset: 0x28FD6, size: 0x8, addend: 0x0, symName: __ZNSt3__16vectorIhNS_9allocatorIhEEE6insertENS_11__wrap_iterIPKhEERS5_, symObjAddr: 0x55DC, symBinAddr: 0x100005F88, symSize: 0x1EA }
  - { offset: 0x290D2, size: 0x8, addend: 0x0, symName: __ZNSt3__16vectorIhNS_9allocatorIhEEE18__assign_with_sizeB8ne180100IPhS5_EEvT_T0_l, symObjAddr: 0x57D6, symBinAddr: 0x100006182, symSize: 0xF0 }
  - { offset: 0x29756, size: 0x8, addend: 0x0, symName: __ZNSt3__16vectorIhNS_9allocatorIhEEE6insertENS_11__wrap_iterIPKhEERS5_, symObjAddr: 0x55DC, symBinAddr: 0x100005F88, symSize: 0x1EA }
  - { offset: 0x2A370, size: 0x8, addend: 0x0, symName: __ZNKSt3__16vectorIhNS_9allocatorIhEEE20__throw_out_of_rangeB8ne180100Ev, symObjAddr: 0x57C6, symBinAddr: 0x100006172, symSize: 0x10 }
  - { offset: 0x2A399, size: 0x8, addend: 0x0, symName: __ZNSt3__16vectorIhNS_9allocatorIhEEE18__assign_with_sizeB8ne180100IPhS5_EEvT_T0_l, symObjAddr: 0x57D6, symBinAddr: 0x100006182, symSize: 0xF0 }
  - { offset: 0x2A3A4, size: 0x8, addend: 0x0, symName: __ZNKSt3__117basic_string_viewIcNS_11char_traitsIcEEE7compareB8ne180100EmmS3_, symObjAddr: 0x52FC, symBinAddr: 0x100005CA8, symSize: 0x5B }
  - { offset: 0x2A4B0, size: 0x8, addend: 0x0, symName: __ZNSt3__120__throw_out_of_rangeB8ne180100EPKc, symObjAddr: 0x5357, symBinAddr: 0x100005D03, symSize: 0x4B }
  - { offset: 0x2A4FF, size: 0x8, addend: 0x0, symName: __ZNSt12out_of_rangeC1B8ne180100EPKc, symObjAddr: 0x53A2, symBinAddr: 0x100005D4E, symSize: 0x24 }
  - { offset: 0x2AC4C, size: 0x8, addend: 0x0, symName: __ZNSt3__112basic_stringIcNS_11char_traitsIcEENS_9allocatorIcEEEC2B8ne180100Emc, symObjAddr: 0x5D20, symBinAddr: 0x100006474, symSize: 0x8C }
  - { offset: 0x2AEFA, size: 0x8, addend: 0x0, symName: _main.cold.1, symObjAddr: 0x5DAC, symBinAddr: 0x1000766B0, symSize: 0x2B }
  - { offset: 0x2D16B, size: 0x8, addend: 0x0, symName: __ZL7newLine, symObjAddr: 0x3100, symBinAddr: 0x100161478, symSize: 0x0 }
  - { offset: 0x42FB9, size: 0x8, addend: 0x0, symName: __ZNSt3__119__allocate_at_leastB8ne180100INS_9allocatorIN9RtfReader4html10html_colorEEEEENS_19__allocation_resultINS_16allocator_traitsIT_E7pointerEEERS8_m, symObjAddr: 0x2772, symBinAddr: 0x100008A0E, symSize: 0x2E }
  - { offset: 0x47792, size: 0x8, addend: 0x0, symName: __ZNSt3__16vectorIN9RtfReader4html10html_colorENS_9allocatorIS3_EEE26__swap_out_circular_bufferERNS_14__split_bufferIS3_RS5_EE, symObjAddr: 0x267C, symBinAddr: 0x100008918, symSize: 0xE6 }
  - { offset: 0x47B4A, size: 0x8, addend: 0x0, symName: __ZN9RtfReader4html10htmlencodeERKNSt3__112basic_stringIcNS1_11char_traitsIcEENS1_9allocatorIcEEEE, symObjAddr: 0x0, symBinAddr: 0x100006500, symSize: 0x3C }
  - { offset: 0x47E71, size: 0x8, addend: 0x0, symName: __ZN9RtfReader4html10find_colorEi, symObjAddr: 0x3C, symBinAddr: 0x10000653C, symSize: 0x3E }
  - { offset: 0x47EE4, size: 0x8, addend: 0x0, symName: __ZN9RtfReader4html10html_color4htmlEv, symObjAddr: 0x7A, symBinAddr: 0x10000657A, symSize: 0x88 }
  - { offset: 0x4827E, size: 0x8, addend: 0x0, symName: __ZN9RtfReader4html9find_fontEi, symObjAddr: 0x102, symBinAddr: 0x100006602, symSize: 0x4A }
  - { offset: 0x48428, size: 0x8, addend: 0x0, symName: __ZN9RtfReader4html5beginEv, symObjAddr: 0x14C, symBinAddr: 0x10000664C, symSize: 0x48 }
  - { offset: 0x484C1, size: 0x8, addend: 0x0, symName: __ZN9RtfReader4html3endEv, symObjAddr: 0x194, symBinAddr: 0x100006694, symSize: 0x5A }
  - { offset: 0x4864C, size: 0x8, addend: 0x0, symName: __ZN9RtfReader4html5titleERKNSt3__112basic_stringIcNS1_11char_traitsIcEENS1_9allocatorIcEEEE, symObjAddr: 0x1EE, symBinAddr: 0x1000066EE, symSize: 0xBA }
  - { offset: 0x48A88, size: 0x8, addend: 0x0, symName: __ZN9RtfReader4html8keywordsERKNSt3__112basic_stringIcNS1_11char_traitsIcEENS1_9allocatorIcEEEE, symObjAddr: 0x2A8, symBinAddr: 0x1000067A8, symSize: 0xBA }
  - { offset: 0x48EC4, size: 0x8, addend: 0x0, symName: __ZN9RtfReader4html6authorERKNSt3__112basic_stringIcNS1_11char_traitsIcEENS1_9allocatorIcEEEE, symObjAddr: 0x362, symBinAddr: 0x100006862, symSize: 0x6 }
  - { offset: 0x48EF4, size: 0x8, addend: 0x0, symName: __ZN9RtfReader4html7summaryEN6format9processor18summary_categoriesEi, symObjAddr: 0x368, symBinAddr: 0x100006868, symSize: 0x6 }
  - { offset: 0x48F2F, size: 0x8, addend: 0x0, symName: __ZN9RtfReader4html5printERKNSt3__112basic_stringIcNS1_11char_traitsIcEENS1_9allocatorIcEEEE, symObjAddr: 0x36E, symBinAddr: 0x10000686E, symSize: 0x3C }
  - { offset: 0x49007, size: 0x8, addend: 0x0, symName: __ZN9RtfReader4html10start_bodyEv, symObjAddr: 0x3AA, symBinAddr: 0x1000068AA, symSize: 0x76 }
  - { offset: 0x490B7, size: 0x8, addend: 0x0, symName: __ZN9RtfReader4html12print_symbolERKNSt3__112basic_stringIcNS1_11char_traitsIcEENS1_9allocatorIcEEEE, symObjAddr: 0x420, symBinAddr: 0x100006920, symSize: 0xA }
  - { offset: 0x490FB, size: 0x8, addend: 0x0, symName: __ZN9RtfReader4html18print_forced_spaceEv, symObjAddr: 0x42A, symBinAddr: 0x10000692A, symSize: 0x2C }
  - { offset: 0x49172, size: 0x8, addend: 0x0, symName: __ZN9RtfReader4html13print_unicodeEi, symObjAddr: 0x456, symBinAddr: 0x100006956, symSize: 0x13C }
  - { offset: 0x4938D, size: 0x8, addend: 0x0, symName: __ZN9RtfReader4html9hyperlinkERKNSt3__112basic_stringIcNS1_11char_traitsIcEENS1_9allocatorIcEEEE, symObjAddr: 0x592, symBinAddr: 0x100006A92, symSize: 0xC2 }
  - { offset: 0x497DE, size: 0x8, addend: 0x0, symName: __ZN9RtfReader4html14hyperlink_baseERKNSt3__112basic_stringIcNS1_11char_traitsIcEENS1_9allocatorIcEEEE, symObjAddr: 0x654, symBinAddr: 0x100006B54, symSize: 0x6 }
  - { offset: 0x4980A, size: 0x8, addend: 0x0, symName: __ZN9RtfReader4html10print_charEN6format9processor18special_charactersE, symObjAddr: 0x65A, symBinAddr: 0x100006B5A, symSize: 0x19E }
  - { offset: 0x499B3, size: 0x8, addend: 0x0, symName: __ZN9RtfReader4html18font_smaller_beginEv, symObjAddr: 0x7F8, symBinAddr: 0x100006CF8, symSize: 0x2C }
  - { offset: 0x49A2A, size: 0x8, addend: 0x0, symName: __ZN9RtfReader4html16font_smaller_endEv, symObjAddr: 0x824, symBinAddr: 0x100006D24, symSize: 0x2C }
  - { offset: 0x49AA1, size: 0x8, addend: 0x0, symName: __ZN9RtfReader4html11table_beginEv, symObjAddr: 0x850, symBinAddr: 0x100006D50, symSize: 0x2C }
  - { offset: 0x49B18, size: 0x8, addend: 0x0, symName: __ZN9RtfReader4html9table_endEv, symObjAddr: 0x87C, symBinAddr: 0x100006D7C, symSize: 0x2C }
  - { offset: 0x49B8F, size: 0x8, addend: 0x0, symName: __ZN9RtfReader4html16table_cell_beginEv, symObjAddr: 0x8A8, symBinAddr: 0x100006DA8, symSize: 0x2C }
  - { offset: 0x49C06, size: 0x8, addend: 0x0, symName: __ZN9RtfReader4html14table_cell_endEv, symObjAddr: 0x8D4, symBinAddr: 0x100006DD4, symSize: 0x2C }
  - { offset: 0x49C7D, size: 0x8, addend: 0x0, symName: __ZN9RtfReader4html15table_row_beginEv, symObjAddr: 0x900, symBinAddr: 0x100006E00, symSize: 0x2C }
  - { offset: 0x49CF4, size: 0x8, addend: 0x0, symName: __ZN9RtfReader4html13table_row_endEv, symObjAddr: 0x92C, symBinAddr: 0x100006E2C, symSize: 0x2C }
  - { offset: 0x49D7E, size: 0x8, addend: 0x0, symName: __ZN9RtfReader4html5imageEPKc, symObjAddr: 0x958, symBinAddr: 0x100006E58, symSize: 0x5C }
  - { offset: 0x49F62, size: 0x8, addend: 0x0, symName: __ZN9RtfReader4html11image_beginERKN6format11image_descrE, symObjAddr: 0x9B4, symBinAddr: 0x100006EB4, symSize: 0x7C }
  - { offset: 0x4A4DA, size: 0x8, addend: 0x0, symName: __ZN6format5utils14file_image_mgrC2ERKNSt3__112basic_stringIcNS2_11char_traitsIcEENS2_9allocatorIcEEEE, symObjAddr: 0x1326, symBinAddr: 0x1000075FE, symSize: 0x108 }
  - { offset: 0x4A683, size: 0x8, addend: 0x0, symName: __ZN9RtfReader4html9image_endERN6format9image_mgrE, symObjAddr: 0xA30, symBinAddr: 0x100006F30, symSize: 0x1E }
  - { offset: 0x4A75A, size: 0x8, addend: 0x0, symName: __ZN9RtfReader4html11enable_attrEiib, symObjAddr: 0xA4E, symBinAddr: 0x100006F4E, symSize: 0x21A }
  - { offset: 0x4AB9B, size: 0x8, addend: 0x0, symName: __ZTv0_n32_N9RtfReader4html11enable_attrEiib, symObjAddr: 0xC68, symBinAddr: 0x100007168, symSize: 0x12 }
  - { offset: 0x4ABD7, size: 0x8, addend: 0x0, symName: __ZN9RtfReader4html9attr_pushEii, symObjAddr: 0xC7A, symBinAddr: 0x10000717A, symSize: 0x6 }
  - { offset: 0x4AC15, size: 0x8, addend: 0x0, symName: __ZTv0_n40_N9RtfReader4html9attr_pushEii, symObjAddr: 0xC80, symBinAddr: 0x100007180, symSize: 0x6 }
  - { offset: 0x4AC2C, size: 0x8, addend: 0x0, symName: __ZThn16_N9RtfReader4html9attr_pushEii, symObjAddr: 0xC86, symBinAddr: 0x100007186, symSize: 0x6 }
  - { offset: 0x4AC43, size: 0x8, addend: 0x0, symName: __ZN9RtfReader4html14attrstack_pushEv, symObjAddr: 0xC8C, symBinAddr: 0x10000718C, symSize: 0x6 }
  - { offset: 0x4AC69, size: 0x8, addend: 0x0, symName: __ZThn16_N9RtfReader4html14attrstack_pushEv, symObjAddr: 0xC98, symBinAddr: 0x100007194, symSize: 0x6 }
  - { offset: 0x4AC80, size: 0x8, addend: 0x0, symName: __ZN9RtfReader4html14attrstack_dropEv, symObjAddr: 0xC9E, symBinAddr: 0x10000719A, symSize: 0x6 }
  - { offset: 0x4ACA6, size: 0x8, addend: 0x0, symName: __ZThn16_N9RtfReader4html14attrstack_dropEv, symObjAddr: 0xCAA, symBinAddr: 0x1000071A2, symSize: 0x6 }
  - { offset: 0x4ACBD, size: 0x8, addend: 0x0, symName: __ZN9RtfReader4html8attr_popEi, symObjAddr: 0xCB0, symBinAddr: 0x1000071A8, symSize: 0xC }
  - { offset: 0x4ACEC, size: 0x8, addend: 0x0, symName: __ZTv0_n64_N9RtfReader4html8attr_popEi, symObjAddr: 0xCBC, symBinAddr: 0x1000071B4, symSize: 0xC }
  - { offset: 0x4AD03, size: 0x8, addend: 0x0, symName: __ZThn16_N9RtfReader4html8attr_popEi, symObjAddr: 0xCC8, symBinAddr: 0x1000071C0, symSize: 0xC }
  - { offset: 0x4AD1A, size: 0x8, addend: 0x0, symName: __ZN9RtfReader4html13attr_drop_allEv, symObjAddr: 0xCD4, symBinAddr: 0x1000071CC, symSize: 0x6 }
  - { offset: 0x4AD40, size: 0x8, addend: 0x0, symName: __ZThn16_N9RtfReader4html13attr_drop_allEv, symObjAddr: 0xCE0, symBinAddr: 0x1000071D4, symSize: 0x6 }
  - { offset: 0x4AD57, size: 0x8, addend: 0x0, symName: __ZN9RtfReader4html12attr_pop_allEv, symObjAddr: 0xCE6, symBinAddr: 0x1000071DA, symSize: 0x6 }
  - { offset: 0x4AD7D, size: 0x8, addend: 0x0, symName: __ZThn16_N9RtfReader4html12attr_pop_allEv, symObjAddr: 0xCF2, symBinAddr: 0x1000071E2, symSize: 0x6 }
  - { offset: 0x4AD94, size: 0x8, addend: 0x0, symName: __ZN9RtfReader4html13attr_pop_dumpEv, symObjAddr: 0xCF8, symBinAddr: 0x1000071E8, symSize: 0x6 }
  - { offset: 0x4ADBA, size: 0x8, addend: 0x0, symName: __ZThn16_N9RtfReader4html13attr_pop_dumpEv, symObjAddr: 0xD04, symBinAddr: 0x1000071F0, symSize: 0x6 }
  - { offset: 0x4ADD1, size: 0x8, addend: 0x0, symName: __ZN9RtfReader4html11attr_removeEPii, symObjAddr: 0xD0A, symBinAddr: 0x1000071F6, symSize: 0x6 }
  - { offset: 0x4AE0F, size: 0x8, addend: 0x0, symName: __ZThn16_N9RtfReader4html11attr_removeEPii, symObjAddr: 0xD16, symBinAddr: 0x1000071FE, symSize: 0x6 }
  - { offset: 0x4AE26, size: 0x8, addend: 0x0, symName: __ZN9RtfReader4html15attr_push_styleEN6format10attributes5style5typesEi, symObjAddr: 0xD1C, symBinAddr: 0x100007204, symSize: 0x6 }
  - { offset: 0x4AE64, size: 0x8, addend: 0x0, symName: __ZThn16_N9RtfReader4html15attr_push_styleEN6format10attributes5style5typesEi, symObjAddr: 0xD28, symBinAddr: 0x10000720C, symSize: 0x6 }
  - { offset: 0x4AE7B, size: 0x8, addend: 0x0, symName: __ZN9RtfReader4html14register_styleERKN6format10attributes5styleE, symObjAddr: 0xD2E, symBinAddr: 0x100007212, symSize: 0x6 }
  - { offset: 0x4AEAD, size: 0x8, addend: 0x0, symName: __ZThn16_N9RtfReader4html14register_styleERKN6format10attributes5styleE, symObjAddr: 0xD3A, symBinAddr: 0x10000721A, symSize: 0x6 }
  - { offset: 0x4AEC4, size: 0x8, addend: 0x0, symName: __ZN9RtfReader4html13register_fontEiPKci, symObjAddr: 0xD40, symBinAddr: 0x100007220, symSize: 0x6 }
  - { offset: 0x4B0A1, size: 0x8, addend: 0x0, symName: __ZN9RtfReader4html14register_colorEhhh, symObjAddr: 0xD46, symBinAddr: 0x100007226, symSize: 0x64 }
  - { offset: 0x4B46D, size: 0x8, addend: 0x0, symName: __ZNSt3__16vectorIN9RtfReader4html10html_colorENS_9allocatorIS3_EEE9push_backB8ne180100EOS3_, symObjAddr: 0xDAA, symBinAddr: 0x10000728A, symSize: 0x158 }
  - { offset: 0x4BC7C, size: 0x8, addend: 0x0, symName: __ZNSt3__114__split_bufferIN9RtfReader4html10html_colorERNS_9allocatorIS3_EEED2Ev, symObjAddr: 0x27F0, symBinAddr: 0x100008A8C, symSize: 0x28 }
  - { offset: 0x4BD49, size: 0x8, addend: 0x0, symName: __ZNKSt3__16vectorIN9RtfReader4html10html_colorENS_9allocatorIS3_EEE20__throw_length_errorB8ne180100Ev, symObjAddr: 0x2762, symBinAddr: 0x1000089FE, symSize: 0x10 }
  - { offset: 0x4BD72, size: 0x8, addend: 0x0, symName: __ZNSt3__119__allocate_at_leastB8ne180100INS_9allocatorIN9RtfReader4html10html_colorEEEEENS_19__allocation_resultINS_16allocator_traitsIT_E7pointerEEERS8_m, symObjAddr: 0x2772, symBinAddr: 0x100008A0E, symSize: 0x2E }
  - { offset: 0x4BD7D, size: 0x8, addend: 0x0, symName: __ZTv0_n32_N9RtfReader4html14register_colorEhhh, symObjAddr: 0xF02, symBinAddr: 0x1000073E2, symSize: 0x12 }
  - { offset: 0x4BDB9, size: 0x8, addend: 0x0, symName: __ZN6format5utils16attributes_stackD1Ev, symObjAddr: 0xF14, symBinAddr: 0x1000766DC, symSize: 0x6 }
  - { offset: 0x4BE7E, size: 0x8, addend: 0x0, symName: __ZN6format5utils11fonts_stackD1Ev, symObjAddr: 0xF20, symBinAddr: 0x1000073F4, symSize: 0x2C }
  - { offset: 0x4C0E4, size: 0x8, addend: 0x0, symName: __ZN6format5utils11fonts_stackD0Ev, symObjAddr: 0xF4C, symBinAddr: 0x100007420, symSize: 0x3E }
  - { offset: 0x4C1F3, size: 0x8, addend: 0x0, symName: __ZN9RtfReader4htmlD1Ev, symObjAddr: 0xF8A, symBinAddr: 0x10000745E, symSize: 0x12 }
  - { offset: 0x4C229, size: 0x8, addend: 0x0, symName: __ZN9RtfReader4htmlD2Ev, symObjAddr: 0x2898, symBinAddr: 0x100008AF4, symSize: 0xF6 }
  - { offset: 0x4C733, size: 0x8, addend: 0x0, symName: __ZN9RtfReader4htmlD0Ev, symObjAddr: 0xF9C, symBinAddr: 0x100007470, symSize: 0x24 }
  - { offset: 0x4C786, size: 0x8, addend: 0x0, symName: __ZThn16_N9RtfReader4htmlD1Ev, symObjAddr: 0xFC0, symBinAddr: 0x100007494, symSize: 0x16 }
  - { offset: 0x4C7E3, size: 0x8, addend: 0x0, symName: __ZThn16_N9RtfReader4htmlD0Ev, symObjAddr: 0xFD6, symBinAddr: 0x1000074AA, symSize: 0x2A }
  - { offset: 0x4C848, size: 0x8, addend: 0x0, symName: __ZThn96_N9RtfReader4htmlD1Ev, symObjAddr: 0x1000, symBinAddr: 0x1000074D4, symSize: 0x16 }
  - { offset: 0x4C889, size: 0x8, addend: 0x0, symName: __ZThn96_N9RtfReader4htmlD0Ev, symObjAddr: 0x1016, symBinAddr: 0x1000074EA, symSize: 0x2A }
  - { offset: 0x4C8EE, size: 0x8, addend: 0x0, symName: __ZTv0_n24_N9RtfReader4htmlD1Ev, symObjAddr: 0x1040, symBinAddr: 0x100007514, symSize: 0x18 }
  - { offset: 0x4C92F, size: 0x8, addend: 0x0, symName: __ZTv0_n24_N9RtfReader4htmlD0Ev, symObjAddr: 0x1058, symBinAddr: 0x10000752C, symSize: 0x2D }
  - { offset: 0x4CC91, size: 0x8, addend: 0x0, symName: __ZNSt3__112basic_stringIcNS_11char_traitsIcEENS_9allocatorIcEEE17__assign_externalEPKcm, symObjAddr: 0x11C8, symBinAddr: 0x10000755C, symSize: 0xA2 }
  - { offset: 0x4D095, size: 0x8, addend: 0x0, symName: __ZNSt3__113basic_filebufIcNS_11char_traitsIcEEEC2Ev, symObjAddr: 0x1612, symBinAddr: 0x1000078EA, symSize: 0xF6 }
  - { offset: 0x4D179, size: 0x8, addend: 0x0, symName: __ZNSt3__114basic_ofstreamIcNS_11char_traitsIcEEE4openEPKcj, symObjAddr: 0x142E, symBinAddr: 0x100007706, symSize: 0x38 }
  - { offset: 0x4D223, size: 0x8, addend: 0x0, symName: __ZNSt3__114basic_ofstreamIcNS_11char_traitsIcEEED1Ev, symObjAddr: 0x1466, symBinAddr: 0x10000773E, symSize: 0x52 }
  - { offset: 0x4D2EC, size: 0x8, addend: 0x0, symName: __ZNSt3__113basic_filebufIcNS_11char_traitsIcEEE4openEPKcj, symObjAddr: 0x243C, symBinAddr: 0x1000086E4, symSize: 0x188 }
  - { offset: 0x4D3F5, size: 0x8, addend: 0x0, symName: __ZNSt3__113basic_filebufIcNS_11char_traitsIcEEED2Ev, symObjAddr: 0x22B2, symBinAddr: 0x10000858A, symSize: 0x70 }
  - { offset: 0x4D437, size: 0x8, addend: 0x0, symName: __ZN6format5utils14file_image_mgrD1Ev, symObjAddr: 0x14B8, symBinAddr: 0x100007790, symSize: 0xA }
  - { offset: 0x4D46D, size: 0x8, addend: 0x0, symName: __ZN6format5utils14file_image_mgrD2Ev, symObjAddr: 0x25D0, symBinAddr: 0x10000886C, symSize: 0xAC }
  - { offset: 0x4D5E0, size: 0x8, addend: 0x0, symName: __ZN6format5utils14file_image_mgrD0Ev, symObjAddr: 0x14C2, symBinAddr: 0x10000779A, symSize: 0x1C }
  - { offset: 0x4D63D, size: 0x8, addend: 0x0, symName: __ZN6format5utils14file_image_mgr3putEPKhm, symObjAddr: 0x14DE, symBinAddr: 0x1000077B6, symSize: 0xE }
  - { offset: 0x4D69E, size: 0x8, addend: 0x0, symName: __ZNSt3__114basic_ofstreamIcNS_11char_traitsIcEEED0Ev, symObjAddr: 0x14EC, symBinAddr: 0x1000077C4, symSize: 0x5A }
  - { offset: 0x4D72A, size: 0x8, addend: 0x0, symName: __ZTv0_n24_NSt3__114basic_ofstreamIcNS_11char_traitsIcEEED1Ev, symObjAddr: 0x1546, symBinAddr: 0x10000781E, symSize: 0x62 }
  - { offset: 0x4D7C9, size: 0x8, addend: 0x0, symName: __ZTv0_n24_NSt3__114basic_ofstreamIcNS_11char_traitsIcEEED0Ev, symObjAddr: 0x15A8, symBinAddr: 0x100007880, symSize: 0x6A }
  - { offset: 0x4D8A0, size: 0x8, addend: 0x0, symName: __ZNSt3__113basic_filebufIcNS_11char_traitsIcEEED1Ev, symObjAddr: 0x1708, symBinAddr: 0x1000079E0, symSize: 0xA }
  - { offset: 0x4D8D6, size: 0x8, addend: 0x0, symName: __ZNSt3__113basic_filebufIcNS_11char_traitsIcEEED0Ev, symObjAddr: 0x1712, symBinAddr: 0x1000079EA, symSize: 0x1C }
  - { offset: 0x4D96C, size: 0x8, addend: 0x0, symName: __ZNSt3__113basic_filebufIcNS_11char_traitsIcEEE5imbueERKNS_6localeE, symObjAddr: 0x172E, symBinAddr: 0x100007A06, symSize: 0xF2 }
  - { offset: 0x4DA3D, size: 0x8, addend: 0x0, symName: __ZNSt3__113basic_filebufIcNS_11char_traitsIcEEE6setbufEPcl, symObjAddr: 0x1820, symBinAddr: 0x100007AF8, symSize: 0x106 }
  - { offset: 0x4DB1B, size: 0x8, addend: 0x0, symName: __ZNSt3__113basic_filebufIcNS_11char_traitsIcEEE7seekoffExNS_8ios_base7seekdirEj, symObjAddr: 0x1926, symBinAddr: 0x100007BFE, symSize: 0x12E }
  - { offset: 0x4DC70, size: 0x8, addend: 0x0, symName: __ZNSt3__113basic_filebufIcNS_11char_traitsIcEEE7seekposENS_4fposI11__mbstate_tEEj, symObjAddr: 0x1A54, symBinAddr: 0x100007D2C, symSize: 0xF6 }
  - { offset: 0x4DCD2, size: 0x8, addend: 0x0, symName: __ZNSt3__113basic_filebufIcNS_11char_traitsIcEEE7seekposENS_4fposI11__mbstate_tEEj, symObjAddr: 0x1A54, symBinAddr: 0x100007D2C, symSize: 0xF6 }
  - { offset: 0x4DE4C, size: 0x8, addend: 0x0, symName: __ZNSt3__113basic_filebufIcNS_11char_traitsIcEEE4syncEv, symObjAddr: 0x1B4A, symBinAddr: 0x100007E22, symSize: 0x2BC }
  - { offset: 0x4E0F7, size: 0x8, addend: 0x0, symName: __ZNSt3__113basic_filebufIcNS_11char_traitsIcEEE9underflowEv, symObjAddr: 0x1E06, symBinAddr: 0x1000080DE, symSize: 0x2B6 }
  - { offset: 0x4E1FC, size: 0x8, addend: 0x0, symName: __ZNSt3__113basic_filebufIcNS_11char_traitsIcEEE9underflowEv, symObjAddr: 0x1E06, symBinAddr: 0x1000080DE, symSize: 0x2B6 }
  - { offset: 0x4E5BA, size: 0x8, addend: 0x0, symName: __ZNSt3__113basic_filebufIcNS_11char_traitsIcEEE9pbackfailEi, symObjAddr: 0x20BC, symBinAddr: 0x100008394, symSize: 0x4A }
  - { offset: 0x4E75E, size: 0x8, addend: 0x0, symName: __ZNSt3__113basic_filebufIcNS_11char_traitsIcEEE8overflowEi, symObjAddr: 0x2106, symBinAddr: 0x1000083DE, symSize: 0x1AC }
  - { offset: 0x4EAEA, size: 0x8, addend: 0x0, symName: __ZNSt3__113basic_filebufIcNS_11char_traitsIcEEE12__write_modeEv, symObjAddr: 0x23C0, symBinAddr: 0x100008668, symSize: 0x7C }
  - { offset: 0x4EBBF, size: 0x8, addend: 0x0, symName: __ZNSt3__113basic_filebufIcNS_11char_traitsIcEEE5closeEv, symObjAddr: 0x2322, symBinAddr: 0x1000085FA, symSize: 0x6D }
  - { offset: 0x4EE2B, size: 0x8, addend: 0x0, symName: __ZN6format6bridgeD1Ev, symObjAddr: 0x25C4, symBinAddr: 0x1000766E4, symSize: 0x6 }
  - { offset: 0x4EE54, size: 0x8, addend: 0x0, symName: __ZN6format6bridgeD0Ev, symObjAddr: 0x25CA, symBinAddr: 0x1000766EA, symSize: 0x6 }
  - { offset: 0x4EF2A, size: 0x8, addend: 0x0, symName: __ZNSt3__128__exception_guard_exceptionsINS_29_AllocatorDestroyRangeReverseINS_9allocatorIN9RtfReader4html10html_colorEEENS_16reverse_iteratorIPS5_EEEEED2B8ne180100Ev, symObjAddr: 0x27A0, symBinAddr: 0x100008A3C, symSize: 0x1A }
  - { offset: 0x4EF89, size: 0x8, addend: 0x0, symName: __ZNKSt3__129_AllocatorDestroyRangeReverseINS_9allocatorIN9RtfReader4html10html_colorEEENS_16reverse_iteratorIPS4_EEEclB8ne180100Ev, symObjAddr: 0x27BA, symBinAddr: 0x100008A56, symSize: 0x36 }
  - { offset: 0x4F288, size: 0x8, addend: 0x0, symName: __ZNSt3__114__split_bufferIN9RtfReader4html10html_colorERNS_9allocatorIS3_EEE17__destruct_at_endB8ne180100EPS3_, symObjAddr: 0x2818, symBinAddr: 0x100008AB4, symSize: 0x3E }
  - { offset: 0x4F6F3, size: 0x8, addend: 0x0, symName: __ZNSt3__16vectorIN9RtfReader4html10html_colorENS_9allocatorIS3_EEE16__destroy_vectorclB8ne180100Ev, symObjAddr: 0x298E, symBinAddr: 0x100008BEA, symSize: 0x32 }
  - { offset: 0x4FBE1, size: 0x8, addend: 0x0, symName: __ZNSt3__16vectorIN9RtfReader4html10html_colorENS_9allocatorIS3_EEE22__base_destruct_at_endB8ne180100EPS3_, symObjAddr: 0x29C0, symBinAddr: 0x100008C1C, symSize: 0x42 }
  - { offset: 0x64526, size: 0x8, addend: 0x0, symName: __ZNSt3__116__throw_bad_castB8ne180100Ev, symObjAddr: 0x2CE8, symBinAddr: 0x10000A6F2, symSize: 0x32 }
  - { offset: 0x66D0E, size: 0x8, addend: 0x0, symName: __ZN9RtfReader20RtfStream2HtmlStringERNSt3__112basic_stringIcNS0_11char_traitsIcEENS0_9allocatorIcEEEERNS0_13basic_istreamIcS3_EE, symObjAddr: 0x0, symBinAddr: 0x100008C7E, symSize: 0x2A0 }
  - { offset: 0x679F6, size: 0x8, addend: 0x0, symName: __ZN9RtfReader20RtfStream2TextStringERNSt3__112basic_stringIcNS0_11char_traitsIcEENS0_9allocatorIcEEEERNS0_13basic_istreamIcS3_EE, symObjAddr: 0x6CE, symBinAddr: 0x10000934C, symSize: 0x302 }
  - { offset: 0x683FB, size: 0x8, addend: 0x0, symName: __ZN9RtfReader20RtfString2HtmlStringERNSt3__112basic_stringIcNS0_11char_traitsIcEENS0_9allocatorIcEEEERKS6_, symObjAddr: 0xB1F, symBinAddr: 0x10000972D, symSize: 0xCF }
  - { offset: 0x68606, size: 0x8, addend: 0x0, symName: __ZN9RtfReader20RtfString2TextStringERNSt3__112basic_stringIcNS0_11char_traitsIcEENS0_9allocatorIcEEEERKS6_, symObjAddr: 0xCC4, symBinAddr: 0x1000098D2, symSize: 0xCF }
  - { offset: 0x68811, size: 0x8, addend: 0x0, symName: __ZN9RtfReader18RtfFile2HtmlStringERNSt3__112basic_stringIcNS0_11char_traitsIcEENS0_9allocatorIcEEEEPKc, symObjAddr: 0xD93, symBinAddr: 0x1000099A1, symSize: 0x1E5 }
  - { offset: 0x68B34, size: 0x8, addend: 0x0, symName: __ZN9RtfReader18RtfFile2TextStringERNSt3__112basic_stringIcNS0_11char_traitsIcEENS0_9allocatorIcEEEEPKc, symObjAddr: 0xFCA, symBinAddr: 0x100009BD8, symSize: 0x1E4 }
  - { offset: 0x696C1, size: 0x8, addend: 0x0, symName: __ZNSt3__119basic_ostringstreamIcNS_11char_traitsIcEENS_9allocatorIcEEEC1B8ne180100Ev, symObjAddr: 0x2A0, symBinAddr: 0x100008F1E, symSize: 0xC4 }
  - { offset: 0x69779, size: 0x8, addend: 0x0, symName: __ZNSt3__118basic_stringstreamIcNS_11char_traitsIcEENS_9allocatorIcEEEC1B8ne180100Ev, symObjAddr: 0x364, symBinAddr: 0x100008FE2, symSize: 0xEA }
  - { offset: 0x69855, size: 0x8, addend: 0x0, symName: __ZN9RtfReader4htmlC1ERNSt3__113basic_ostreamIcNS1_11char_traitsIcEEEE, symObjAddr: 0x44E, symBinAddr: 0x1000090CC, symSize: 0x186 }
  - { offset: 0x69D6C, size: 0x8, addend: 0x0, symName: __ZNKSt3__115basic_stringbufIcNS_11char_traitsIcEENS_9allocatorIcEEE3strB8ne180100IS4_EENS_12basic_stringIcS2_T_EERKS8_, symObjAddr: 0x2D96, symBinAddr: 0x10000A724, symSize: 0xA2 }
  - { offset: 0x6A184, size: 0x8, addend: 0x0, symName: __ZNKSt3__115basic_stringbufIcNS_11char_traitsIcEENS_9allocatorIcEEE4viewB8ne180100Ev, symObjAddr: 0x2E38, symBinAddr: 0x10000A7C6, symSize: 0x40 }
  - { offset: 0x6A45A, size: 0x8, addend: 0x0, symName: __ZNSt3__118basic_stringstreamIcNS_11char_traitsIcEENS_9allocatorIcEEED1Ev, symObjAddr: 0x5D4, symBinAddr: 0x100009252, symSize: 0x84 }
  - { offset: 0x6A5E5, size: 0x8, addend: 0x0, symName: __ZNSt3__119basic_ostringstreamIcNS_11char_traitsIcEENS_9allocatorIcEEED1Ev, symObjAddr: 0x658, symBinAddr: 0x1000092D6, symSize: 0x76 }
  - { offset: 0x6B0D6, size: 0x8, addend: 0x0, symName: __ZN6format5utils16attributes_stackD2Ev, symObjAddr: 0x11AE, symBinAddr: 0x100009DBC, symSize: 0x3A }
  - { offset: 0x6B332, size: 0x8, addend: 0x0, symName: __ZN9RtfReader4textC1ERNSt3__113basic_ostreamIcNS1_11char_traitsIcEEEE, symObjAddr: 0x9D0, symBinAddr: 0x10000964E, symSize: 0xDE }
  - { offset: 0x6BB7F, size: 0x8, addend: 0x0, symName: __ZNSt3__118basic_stringstreamIcNS_11char_traitsIcEENS_9allocatorIcEEEC1B8ne180100ERKNS_12basic_stringIcS2_S4_EEj, symObjAddr: 0xBEE, symBinAddr: 0x1000097FC, symSize: 0xD6 }
  - { offset: 0x6BCB6, size: 0x8, addend: 0x0, symName: __ZNSt3__115basic_stringbufIcNS_11char_traitsIcEENS_9allocatorIcEEEC2B8ne180100ERKNS_12basic_stringIcS2_S4_EEj, symObjAddr: 0x2E78, symBinAddr: 0x10000A806, symSize: 0x78 }
  - { offset: 0x6C172, size: 0x8, addend: 0x0, symName: __ZNSt3__114basic_ifstreamIcNS_11char_traitsIcEEED1Ev, symObjAddr: 0xF78, symBinAddr: 0x100009B86, symSize: 0x52 }
  - { offset: 0x6C1E2, size: 0x8, addend: 0x0, symName: __ZN6format5fontsD1Ev, symObjAddr: 0x11E8, symBinAddr: 0x1000766F0, symSize: 0x6 }
  - { offset: 0x6C20B, size: 0x8, addend: 0x0, symName: __ZN6format5fontsD0Ev, symObjAddr: 0x11EE, symBinAddr: 0x1000766F6, symSize: 0x6 }
  - { offset: 0x6C234, size: 0x8, addend: 0x0, symName: __ZN6format6colorsD1Ev, symObjAddr: 0x11F4, symBinAddr: 0x1000766FC, symSize: 0x6 }
  - { offset: 0x6C25D, size: 0x8, addend: 0x0, symName: __ZN6format6colorsD0Ev, symObjAddr: 0x11FA, symBinAddr: 0x100076702, symSize: 0x6 }
  - { offset: 0x6C286, size: 0x8, addend: 0x0, symName: __ZN6format10attributesD1Ev, symObjAddr: 0x1200, symBinAddr: 0x100076708, symSize: 0x6 }
  - { offset: 0x6C2AF, size: 0x8, addend: 0x0, symName: __ZN6format10attributesD0Ev, symObjAddr: 0x1206, symBinAddr: 0x10007670E, symSize: 0x6 }
  - { offset: 0x6D265, size: 0x8, addend: 0x0, symName: __ZThn16_NSt3__118basic_stringstreamIcNS_11char_traitsIcEENS_9allocatorIcEEED1Ev, symObjAddr: 0x1758, symBinAddr: 0x100009DF6, symSize: 0x80 }
  - { offset: 0x6D3F7, size: 0x8, addend: 0x0, symName: __ZTv0_n24_NSt3__118basic_stringstreamIcNS_11char_traitsIcEENS_9allocatorIcEEED1Ev, symObjAddr: 0x17D8, symBinAddr: 0x100009E76, symSize: 0x8E }
  - { offset: 0x6D595, size: 0x8, addend: 0x0, symName: __ZNSt3__118basic_stringstreamIcNS_11char_traitsIcEENS_9allocatorIcEEED0Ev, symObjAddr: 0x1866, symBinAddr: 0x100009F04, symSize: 0x8C }
  - { offset: 0x6D758, size: 0x8, addend: 0x0, symName: __ZThn16_NSt3__118basic_stringstreamIcNS_11char_traitsIcEENS_9allocatorIcEEED0Ev, symObjAddr: 0x18F2, symBinAddr: 0x100009F90, symSize: 0x88 }
  - { offset: 0x6D906, size: 0x8, addend: 0x0, symName: __ZTv0_n24_NSt3__118basic_stringstreamIcNS_11char_traitsIcEENS_9allocatorIcEEED0Ev, symObjAddr: 0x197A, symBinAddr: 0x10000A018, symSize: 0x96 }
  - { offset: 0x6DAC0, size: 0x8, addend: 0x0, symName: __ZNSt3__115basic_stringbufIcNS_11char_traitsIcEENS_9allocatorIcEEED1Ev, symObjAddr: 0x1A10, symBinAddr: 0x10000A0AE, symSize: 0x34 }
  - { offset: 0x6DC15, size: 0x8, addend: 0x0, symName: __ZNSt3__115basic_stringbufIcNS_11char_traitsIcEENS_9allocatorIcEEED0Ev, symObjAddr: 0x1A44, symBinAddr: 0x10000A0E2, symSize: 0x3C }
  - { offset: 0x6DE95, size: 0x8, addend: 0x0, symName: __ZNSt3__115basic_stringbufIcNS_11char_traitsIcEENS_9allocatorIcEEE7seekoffExNS_8ios_base7seekdirEj, symObjAddr: 0x1A80, symBinAddr: 0x10000A11E, symSize: 0x10A }
  - { offset: 0x6E072, size: 0x8, addend: 0x0, symName: __ZNSt3__115basic_stringbufIcNS_11char_traitsIcEENS_9allocatorIcEEE7seekposENS_4fposI11__mbstate_tEEj, symObjAddr: 0x1B8A, symBinAddr: 0x10000A228, symSize: 0x26 }
  - { offset: 0x6E113, size: 0x8, addend: 0x0, symName: __ZNSt3__115basic_stringbufIcNS_11char_traitsIcEENS_9allocatorIcEEE9underflowEv, symObjAddr: 0x1BB0, symBinAddr: 0x10000A24E, symSize: 0x42 }
  - { offset: 0x6E1F3, size: 0x8, addend: 0x0, symName: __ZNSt3__115basic_stringbufIcNS_11char_traitsIcEENS_9allocatorIcEEE9pbackfailEi, symObjAddr: 0x1BF2, symBinAddr: 0x10000A290, symSize: 0x5C }
  - { offset: 0x6E470, size: 0x8, addend: 0x0, symName: __ZNSt3__115basic_stringbufIcNS_11char_traitsIcEENS_9allocatorIcEEE8overflowEi, symObjAddr: 0x1C4E, symBinAddr: 0x10000A2EC, symSize: 0x14E }
  - { offset: 0x6E8AD, size: 0x8, addend: 0x0, symName: __ZTv0_n24_NSt3__119basic_ostringstreamIcNS_11char_traitsIcEENS_9allocatorIcEEED1Ev, symObjAddr: 0x1DA8, symBinAddr: 0x10000A43A, symSize: 0x86 }
  - { offset: 0x6EA4B, size: 0x8, addend: 0x0, symName: __ZNSt3__119basic_ostringstreamIcNS_11char_traitsIcEENS_9allocatorIcEEED0Ev, symObjAddr: 0x1E2E, symBinAddr: 0x10000A4C0, symSize: 0x7E }
  - { offset: 0x6EC0E, size: 0x8, addend: 0x0, symName: __ZTv0_n24_NSt3__119basic_ostringstreamIcNS_11char_traitsIcEENS_9allocatorIcEEED0Ev, symObjAddr: 0x1EAC, symBinAddr: 0x10000A53E, symSize: 0x8E }
  - { offset: 0x6EDC8, size: 0x8, addend: 0x0, symName: __ZTv0_n24_NSt3__114basic_ifstreamIcNS_11char_traitsIcEEED1Ev, symObjAddr: 0x1F3A, symBinAddr: 0x10000A5CC, symSize: 0x62 }
  - { offset: 0x6EE4B, size: 0x8, addend: 0x0, symName: __ZNSt3__114basic_ifstreamIcNS_11char_traitsIcEEED0Ev, symObjAddr: 0x1F9C, symBinAddr: 0x10000A62E, symSize: 0x5A }
  - { offset: 0x6EEF3, size: 0x8, addend: 0x0, symName: __ZTv0_n24_NSt3__114basic_ifstreamIcNS_11char_traitsIcEEED0Ev, symObjAddr: 0x1FF6, symBinAddr: 0x10000A688, symSize: 0x6A }
  - { offset: 0x6F14C, size: 0x8, addend: 0x0, symName: __ZNKSt3__115basic_stringbufIcNS_11char_traitsIcEENS_9allocatorIcEEE4viewB8ne180100Ev, symObjAddr: 0x2E38, symBinAddr: 0x10000A7C6, symSize: 0x40 }
  - { offset: 0x6F2C8, size: 0x8, addend: 0x0, symName: __ZNSt3__115basic_stringbufIcNS_11char_traitsIcEENS_9allocatorIcEEE15__init_buf_ptrsB8ne180100Ev, symObjAddr: 0x2EF0, symBinAddr: 0x10000A87E, symSize: 0x10E }
  - { offset: 0x7123B, size: 0x8, addend: 0x0, symName: __ZL7newLine, symObjAddr: 0xF38, symBinAddr: 0x100161490, symSize: 0x0 }
  - { offset: 0x7ABDC, size: 0x8, addend: 0x0, symName: __ZN9RtfReader4text5beginEv, symObjAddr: 0x0, symBinAddr: 0x10000A98C, symSize: 0x6 }
  - { offset: 0x7AC01, size: 0x8, addend: 0x0, symName: __ZN9RtfReader4text3endEv, symObjAddr: 0x6, symBinAddr: 0x10000A992, symSize: 0x6 }
  - { offset: 0x7AC26, size: 0x8, addend: 0x0, symName: __ZN9RtfReader4text5titleERKNSt3__112basic_stringIcNS1_11char_traitsIcEENS1_9allocatorIcEEEE, symObjAddr: 0xC, symBinAddr: 0x10000A998, symSize: 0x6 }
  - { offset: 0x7AC56, size: 0x8, addend: 0x0, symName: __ZN9RtfReader4text8keywordsERKNSt3__112basic_stringIcNS1_11char_traitsIcEENS1_9allocatorIcEEEE, symObjAddr: 0x12, symBinAddr: 0x10000A99E, symSize: 0x6 }
  - { offset: 0x7AC86, size: 0x8, addend: 0x0, symName: __ZN9RtfReader4text6authorERKNSt3__112basic_stringIcNS1_11char_traitsIcEENS1_9allocatorIcEEEE, symObjAddr: 0x18, symBinAddr: 0x10000A9A4, symSize: 0x6 }
  - { offset: 0x7ACB6, size: 0x8, addend: 0x0, symName: __ZN9RtfReader4text7summaryEN6format9processor18summary_categoriesEi, symObjAddr: 0x1E, symBinAddr: 0x10000A9AA, symSize: 0x6 }
  - { offset: 0x7AD3F, size: 0x8, addend: 0x0, symName: __ZN9RtfReader4text5printERKNSt3__112basic_stringIcNS1_11char_traitsIcEENS1_9allocatorIcEEEE, symObjAddr: 0x24, symBinAddr: 0x10000A9B0, symSize: 0x28 }
  - { offset: 0x7AE02, size: 0x8, addend: 0x0, symName: __ZN9RtfReader4text12print_symbolERKNSt3__112basic_stringIcNS1_11char_traitsIcEENS1_9allocatorIcEEEE, symObjAddr: 0x4C, symBinAddr: 0x10000A9D8, symSize: 0x6 }
  - { offset: 0x7AE2E, size: 0x8, addend: 0x0, symName: __ZN9RtfReader4text18print_forced_spaceEv, symObjAddr: 0x52, symBinAddr: 0x10000A9DE, symSize: 0x1E }
  - { offset: 0x7AE90, size: 0x8, addend: 0x0, symName: __ZN9RtfReader4text13print_unicodeEi, symObjAddr: 0x70, symBinAddr: 0x10000A9FC, symSize: 0x130 }
  - { offset: 0x7B096, size: 0x8, addend: 0x0, symName: __ZN9RtfReader4text9hyperlinkERKNSt3__112basic_stringIcNS1_11char_traitsIcEENS1_9allocatorIcEEEE, symObjAddr: 0x1A0, symBinAddr: 0x10000AB2C, symSize: 0x28 }
  - { offset: 0x7B159, size: 0x8, addend: 0x0, symName: __ZN9RtfReader4text14hyperlink_baseERKNSt3__112basic_stringIcNS1_11char_traitsIcEENS1_9allocatorIcEEEE, symObjAddr: 0x1C8, symBinAddr: 0x10000AB54, symSize: 0x6 }
  - { offset: 0x7B185, size: 0x8, addend: 0x0, symName: __ZN9RtfReader4text10print_charEN6format9processor18special_charactersE, symObjAddr: 0x1CE, symBinAddr: 0x10000AB5A, symSize: 0x1E2 }
  - { offset: 0x7B3B8, size: 0x8, addend: 0x0, symName: __ZN9RtfReader4text18font_smaller_beginEv, symObjAddr: 0x3B0, symBinAddr: 0x10000AD3C, symSize: 0x6 }
  - { offset: 0x7B3DD, size: 0x8, addend: 0x0, symName: __ZN9RtfReader4text16font_smaller_endEv, symObjAddr: 0x3B6, symBinAddr: 0x10000AD42, symSize: 0x6 }
  - { offset: 0x7B402, size: 0x8, addend: 0x0, symName: __ZN9RtfReader4text11table_beginEv, symObjAddr: 0x3BC, symBinAddr: 0x10000AD48, symSize: 0x6 }
  - { offset: 0x7B427, size: 0x8, addend: 0x0, symName: __ZN9RtfReader4text9table_endEv, symObjAddr: 0x3C2, symBinAddr: 0x10000AD4E, symSize: 0x6 }
  - { offset: 0x7B44C, size: 0x8, addend: 0x0, symName: __ZN9RtfReader4text16table_cell_beginEv, symObjAddr: 0x3C8, symBinAddr: 0x10000AD54, symSize: 0x6 }
  - { offset: 0x7B471, size: 0x8, addend: 0x0, symName: __ZN9RtfReader4text14table_cell_endEv, symObjAddr: 0x3CE, symBinAddr: 0x10000AD5A, symSize: 0x6 }
  - { offset: 0x7B496, size: 0x8, addend: 0x0, symName: __ZN9RtfReader4text15table_row_beginEv, symObjAddr: 0x3D4, symBinAddr: 0x10000AD60, symSize: 0x6 }
  - { offset: 0x7B4BB, size: 0x8, addend: 0x0, symName: __ZN9RtfReader4text13table_row_endEv, symObjAddr: 0x3DA, symBinAddr: 0x10000AD66, symSize: 0x6 }
  - { offset: 0x7B4E0, size: 0x8, addend: 0x0, symName: __ZN9RtfReader4text11image_beginERKN6format11image_descrE, symObjAddr: 0x3E0, symBinAddr: 0x10000AD6C, symSize: 0x8 }
  - { offset: 0x7B510, size: 0x8, addend: 0x0, symName: __ZN9RtfReader4text9image_endERN6format9image_mgrE, symObjAddr: 0x3E8, symBinAddr: 0x10000AD74, symSize: 0x6 }
  - { offset: 0x7B53C, size: 0x8, addend: 0x0, symName: __ZN9RtfReader4text11enable_attrEiib, symObjAddr: 0x3EE, symBinAddr: 0x10000AD7A, symSize: 0x6 }
  - { offset: 0x7B582, size: 0x8, addend: 0x0, symName: __ZTv0_n32_N9RtfReader4text11enable_attrEiib, symObjAddr: 0x3F4, symBinAddr: 0x10000AD80, symSize: 0x6 }
  - { offset: 0x7B598, size: 0x8, addend: 0x0, symName: __ZN9RtfReader4text9attr_pushEii, symObjAddr: 0x3FA, symBinAddr: 0x10000AD86, symSize: 0x6 }
  - { offset: 0x7B5D3, size: 0x8, addend: 0x0, symName: __ZThn16_N9RtfReader4text9attr_pushEii, symObjAddr: 0x406, symBinAddr: 0x10000AD8E, symSize: 0x6 }
  - { offset: 0x7B5E9, size: 0x8, addend: 0x0, symName: __ZN9RtfReader4text14attrstack_pushEv, symObjAddr: 0x40C, symBinAddr: 0x10000AD94, symSize: 0x6 }
  - { offset: 0x7B60E, size: 0x8, addend: 0x0, symName: __ZThn16_N9RtfReader4text14attrstack_pushEv, symObjAddr: 0x418, symBinAddr: 0x10000AD9C, symSize: 0x6 }
  - { offset: 0x7B624, size: 0x8, addend: 0x0, symName: __ZN9RtfReader4text14attrstack_dropEv, symObjAddr: 0x41E, symBinAddr: 0x10000ADA2, symSize: 0x6 }
  - { offset: 0x7B649, size: 0x8, addend: 0x0, symName: __ZThn16_N9RtfReader4text14attrstack_dropEv, symObjAddr: 0x42A, symBinAddr: 0x10000ADAA, symSize: 0x6 }
  - { offset: 0x7B65F, size: 0x8, addend: 0x0, symName: __ZN9RtfReader4text8attr_popEi, symObjAddr: 0x430, symBinAddr: 0x10000ADB0, symSize: 0xC }
  - { offset: 0x7B68B, size: 0x8, addend: 0x0, symName: __ZThn16_N9RtfReader4text8attr_popEi, symObjAddr: 0x448, symBinAddr: 0x10000ADBC, symSize: 0xC }
  - { offset: 0x7B6A1, size: 0x8, addend: 0x0, symName: __ZN9RtfReader4text13attr_drop_allEv, symObjAddr: 0x454, symBinAddr: 0x10000ADC8, symSize: 0x6 }
  - { offset: 0x7B6C6, size: 0x8, addend: 0x0, symName: __ZThn16_N9RtfReader4text13attr_drop_allEv, symObjAddr: 0x460, symBinAddr: 0x10000ADD0, symSize: 0x6 }
  - { offset: 0x7B6DC, size: 0x8, addend: 0x0, symName: __ZN9RtfReader4text12attr_pop_allEv, symObjAddr: 0x466, symBinAddr: 0x10000ADD6, symSize: 0x6 }
  - { offset: 0x7B701, size: 0x8, addend: 0x0, symName: __ZThn16_N9RtfReader4text12attr_pop_allEv, symObjAddr: 0x472, symBinAddr: 0x10000ADDE, symSize: 0x6 }
  - { offset: 0x7B717, size: 0x8, addend: 0x0, symName: __ZN9RtfReader4text13attr_pop_dumpEv, symObjAddr: 0x478, symBinAddr: 0x10000ADE4, symSize: 0x6 }
  - { offset: 0x7B73C, size: 0x8, addend: 0x0, symName: __ZThn16_N9RtfReader4text13attr_pop_dumpEv, symObjAddr: 0x484, symBinAddr: 0x10000ADEC, symSize: 0x6 }
  - { offset: 0x7B752, size: 0x8, addend: 0x0, symName: __ZN9RtfReader4text11attr_removeEPii, symObjAddr: 0x48A, symBinAddr: 0x10000ADF2, symSize: 0x6 }
  - { offset: 0x7B78D, size: 0x8, addend: 0x0, symName: __ZThn16_N9RtfReader4text11attr_removeEPii, symObjAddr: 0x496, symBinAddr: 0x10000ADFA, symSize: 0x6 }
  - { offset: 0x7B7A3, size: 0x8, addend: 0x0, symName: __ZN9RtfReader4text15attr_push_styleEN6format10attributes5style5typesEi, symObjAddr: 0x49C, symBinAddr: 0x10000AE00, symSize: 0x6 }
  - { offset: 0x7B7DE, size: 0x8, addend: 0x0, symName: __ZThn16_N9RtfReader4text15attr_push_styleEN6format10attributes5style5typesEi, symObjAddr: 0x4A8, symBinAddr: 0x10000AE08, symSize: 0x6 }
  - { offset: 0x7B7F4, size: 0x8, addend: 0x0, symName: __ZN9RtfReader4text14register_styleERKN6format10attributes5styleE, symObjAddr: 0x4AE, symBinAddr: 0x10000AE0E, symSize: 0x6 }
  - { offset: 0x7B824, size: 0x8, addend: 0x0, symName: __ZThn16_N9RtfReader4text14register_styleERKN6format10attributes5styleE, symObjAddr: 0x4BA, symBinAddr: 0x10000AE16, symSize: 0x6 }
  - { offset: 0x7B83A, size: 0x8, addend: 0x0, symName: __ZN9RtfReader4text13register_fontEiPKci, symObjAddr: 0x4C0, symBinAddr: 0x10000AE1C, symSize: 0x6 }
  - { offset: 0x7B884, size: 0x8, addend: 0x0, symName: __ZN9RtfReader4text14register_colorEhhh, symObjAddr: 0x4C6, symBinAddr: 0x10000AE22, symSize: 0x6 }
  - { offset: 0x7B8CE, size: 0x8, addend: 0x0, symName: __ZTv0_n32_N9RtfReader4text14register_colorEhhh, symObjAddr: 0x4CC, symBinAddr: 0x10000AE28, symSize: 0x6 }
  - { offset: 0x7B8E5, size: 0x8, addend: 0x0, symName: __ZN6format5utils16attributes_stackD0Ev, symObjAddr: 0x4D8, symBinAddr: 0x100076714, symSize: 0x6 }
  - { offset: 0x7BC9C, size: 0x8, addend: 0x0, symName: __ZN9RtfReader4textD1Ev, symObjAddr: 0x548, symBinAddr: 0x10000AE30, symSize: 0x58 }
  - { offset: 0x7BEC5, size: 0x8, addend: 0x0, symName: __ZNSt3__15dequeINS_5stackINS_4pairIiiEENS0_IS3_NS_9allocatorIS3_EEEEEENS4_IS7_EEED2B8ne180100Ev, symObjAddr: 0x8C4, symBinAddr: 0x10000B15C, symSize: 0x142 }
  - { offset: 0x7C316, size: 0x8, addend: 0x0, symName: __ZNSt3__16__treeIN6format10attributes5styleENS_4lessIS3_EENS_9allocatorIS3_EEE7destroyEPNS_11__tree_nodeIS3_PvEE, symObjAddr: 0xB00, symBinAddr: 0x10000B2D4, symSize: 0x42 }
  - { offset: 0x7C5F5, size: 0x8, addend: 0x0, symName: __ZN9RtfReader4textD0Ev, symObjAddr: 0x5A0, symBinAddr: 0x10000AE88, symSize: 0x60 }
  - { offset: 0x7C838, size: 0x8, addend: 0x0, symName: __ZThn16_N9RtfReader4textD1Ev, symObjAddr: 0x600, symBinAddr: 0x10000AEE8, symSize: 0x5C }
  - { offset: 0x7CA71, size: 0x8, addend: 0x0, symName: __ZThn16_N9RtfReader4textD0Ev, symObjAddr: 0x65C, symBinAddr: 0x10000AF44, symSize: 0x64 }
  - { offset: 0x7CCA8, size: 0x8, addend: 0x0, symName: __ZThn96_N9RtfReader4textD1Ev, symObjAddr: 0x6C0, symBinAddr: 0x10000AFA8, symSize: 0x5C }
  - { offset: 0x7CEC2, size: 0x8, addend: 0x0, symName: __ZThn96_N9RtfReader4textD0Ev, symObjAddr: 0x71C, symBinAddr: 0x10000B004, symSize: 0x64 }
  - { offset: 0x7D0F6, size: 0x8, addend: 0x0, symName: __ZTv0_n24_N9RtfReader4textD1Ev, symObjAddr: 0x780, symBinAddr: 0x10000B068, symSize: 0x76 }
  - { offset: 0x7D32B, size: 0x8, addend: 0x0, symName: __ZTv0_n24_N9RtfReader4textD0Ev, symObjAddr: 0x7F6, symBinAddr: 0x10000B0DE, symSize: 0x7D }
  - { offset: 0x7DD5F, size: 0x8, addend: 0x0, symName: __ZNSt3__114__split_bufferIPNS_4pairIiiEENS_9allocatorIS3_EEED2Ev, symObjAddr: 0xA98, symBinAddr: 0x10000B2A0, symSize: 0x34 }
  - { offset: 0x805FB, size: 0x8, addend: 0x0, symName: __CFStringConvertWindowsCodepageToEncoding, symObjAddr: 0x0, symBinAddr: 0x10000B338, symSize: 0x1F4 }
  - { offset: 0x8063A, size: 0x8, addend: 0x0, symName: __CFStringConvertWindowsCodepageToEncoding, symObjAddr: 0x0, symBinAddr: 0x10000B338, symSize: 0x1F4 }
  - { offset: 0x80694, size: 0x8, addend: 0x0, symName: __CFStringConvertEncodingToWindowsCodepage, symObjAddr: 0x1F4, symBinAddr: 0x10000B52C, symSize: 0x300 }
  - { offset: 0x806EE, size: 0x8, addend: 0x0, symName: _TECConvertWindowsCodepageToTextEncoding, symObjAddr: 0x4F4, symBinAddr: 0x10000B82C, symSize: 0x168 }
  - { offset: 0x8072A, size: 0x8, addend: 0x0, symName: _TextEncodingNameToWindowsCodepage, symObjAddr: 0x65C, symBinAddr: 0x10000B994, symSize: 0x82 }
...
